(lp1
(lp2
(((dp3
S'Cluster'
p4
S'1'
sS'Run No'
p5
S'8'
sS'Feature vector'
p6
S'[9, -11]'
p7
s(dp8
S'name'
p9
S''
sS''
t(dp10
S'total population (Cluster 1)'
p11
(lp12
F7031951360
aF7123802112
aF7213495808
aF7301152768
aF7386704384
aF7470029824
aF7551015936
aF7629585920
aF7705696256
aF7779332096
aF7850501120
aF7919226368
aF7985555456
aF8049578496
aF8111389696
aF8171069952
aF8228688384
aF8284307456
aF8337981440
aF8389758464
aF8439681024
aF8487784448
aF8534096896
aF8578643456
aF8621445120
aF8662514688
aF8701858816
aF8739510272
aF8775448576
aF8809651200
aF8842100736
aF8872779776
aF8901667840
aF8928744448
aF8953982976
aF8977355776
aF8998836224
aF9018390528
aF9035991040
aF9051606016
aF9065205760
aF9076757504
aF9086231552
aF9093594112
aF9098815488
aF9101863936
aF9102706688
aF9101313024
aF9097655296
aF9091700736
aF9083428864
asS'TIME'
p13
(lp14
I0
aI1
aI2
aI3
aI4
aI5
aI6
aI7
aI8
aI9
aI10
aI11
aI12
aI13
aI14
aI15
aI16
aI17
aI18
aI19
aI20
aI21
aI22
aI23
aI24
aI25
aI26
aI27
aI28
aI29
aI30
aI31
aI32
aI33
aI34
aI35
aI36
aI37
aI38
aI39
aI40
aI41
aI42
aI43
aI44
aI45
aI46
aI47
aI48
aI49
aI50
astp15
a(((dp16
g4
S'1'
sg5
S'9'
sg6
S'[9, -1, -11]'
p17
s(dp18
g9
S''
sS''
t(dp19
S'total population (Cluster 1)'
p20
(lp21
F7031951360
aF7122626048
aF7210624000
aF7296029696
aF7378872832
aF7459169792
aF7536937472
aF7612203520
aF7685006336
aF7755394560
aF7823452160
aF7889286144
aF7952999424
aF8014686720
aF8074437632
aF8132330496
aF8188435968
aF8242816512
aF8295523328
aF8346603520
aF8396091904
aF8444017152
aF8490400256
aF8535257600
aF8578595328
aF8620417024
aF8660721664
aF8699497472
aF8736735232
aF8772418560
aF8806525952
aF8839036928
aF8869937152
aF8899194880
aF8926771200
aF8952634368
aF8976748544
aF8999079936
aF9019593728
aF9038252032
aF9055022080
aF9069865984
aF9082746880
aF9093629952
aF9102477312
aF9109252096
aF9113925632
aF9116457984
aF9116816384
aF9114964992
aF9110872064
asg13
(lp22
I0
aI1
aI2
aI3
aI4
aI5
aI6
aI7
aI8
aI9
aI10
aI11
aI12
aI13
aI14
aI15
aI16
aI17
aI18
aI19
aI20
aI21
aI22
aI23
aI24
aI25
aI26
aI27
aI28
aI29
aI30
aI31
aI32
aI33
aI34
aI35
aI36
aI37
aI38
aI39
aI40
aI41
aI42
aI43
aI44
aI45
aI46
aI47
aI48
aI49
aI50
astp23
aa(lp24
(((dp25
g4
S'2'
sg5
S'6'
sg6
S'[9, 10, 9]'
p26
s(dp27
g9
S''
sS''
t(dp28
S'total population (Cluster 2)'
p29
(lp30
F7031951360
aF7126169600
aF7218661376
aF7309700608
aF7399350784
aF7487578112
aF7574330880
aF7659566080
aF7743259648
aF7825399808
aF7906023424
aF7985252864
aF8063225856
aF8140073472
aF8215919616
aF8290883584
aF8365073920
aF8438593536
aF8511538688
aF8583993344
aF8656036864
aF8727737344
aF8799158272
aF8870350848
aF8941376512
aF9012291584
aF9083105280
aF9153833984
aF9224498176
aF9295116288
aF9365699584
aF9436258304
aF9506795520
aF9577316352
aF9647817728
aF9718296576
aF9788745728
aF9859154944
aF9929516032
aF9999813632
aF10070035456
aF10140165120
aF10210184192
aF10280076288
aF10349819904
aF10419398656
aF10488792064
aF10557978624
aF10626936832
aF10695648256
aF10764091392
asg13
(lp31
I0
aI1
aI2
aI3
aI4
aI5
aI6
aI7
aI8
aI9
aI10
aI11
aI12
aI13
aI14
aI15
aI16
aI17
aI18
aI19
aI20
aI21
aI22
aI23
aI24
aI25
aI26
aI27
aI28
aI29
aI30
aI31
aI32
aI33
aI34
aI35
aI36
aI37
aI38
aI39
aI40
aI41
aI42
aI43
aI44
aI45
aI46
aI47
aI48
aI49
aI50
astp32
aa(lp33
(((dp34
g4
S'3'
sg5
S'0'
sg6
S'[9, 10, 11]'
p35
s(dp36
g9
S''
sS''
t(dp37
S'total population (Cluster 3)'
p38
(lp39
F7031951360
aF7124803072
aF7216531456
aF7307039232
aF7396275200
aF7484232704
aF7570941952
aF7656456192
aF7740857856
aF7824239616
aF7906706944
aF7988374528
aF8069367808
aF8149824000
aF8229880832
aF8309664768
aF8389294592
aF8468882432
aF8548532736
aF8628348928
aF8708421632
aF8788841472
aF8869687296
aF8951044096
aF9032984576
aF9115578368
aF9198886912
aF9282971648
aF9367883776
aF9453674496
aF9540386816
aF9628063744
aF9716742144
aF9806459904
aF9897245696
aF9989130240
aF10082139136
aF10176294912
aF10271624192
aF10368152576
aF10465904640
aF10564897792
aF10665150464
aF10766681088
aF10869509120
aF10973651968
aF11079119872
aF11185926144
aF11294075904
aF11403579392
aF11514444800
asg13
(lp40
I0
aI1
aI2
aI3
aI4
aI5
aI6
aI7
aI8
aI9
aI10
aI11
aI12
aI13
aI14
aI15
aI16
aI17
aI18
aI19
aI20
aI21
aI22
aI23
aI24
aI25
aI26
aI27
aI28
aI29
aI30
aI31
aI32
aI33
aI34
aI35
aI36
aI37
aI38
aI39
aI40
aI41
aI42
aI43
aI44
aI45
aI46
aI47
aI48
aI49
aI50
astp41
a(((dp42
g4
S'3'
sg5
S'1'
sg6
S'[9, 10, 11]'
p43
s(dp44
g9
S''
sS''
t(dp45
S'total population (Cluster 3)'
p46
(lp47
F7031951360
aF7130258432
aF7227937280
aF7324498432
aF7419717120
aF7513497600
aF7605820928
aF7696720384
aF7786266112
aF7874549760
aF7961677824
aF8047768576
aF8132947968
aF8217326592
aF8301006336
aF8384115712
aF8466812928
aF8549252096
aF8631569408
aF8713885696
aF8796316672
aF8878971904
aF8961956864
aF9045368832
aF9129298944
aF9213808640
aF9298974720
aF9384889344
aF9471645696
aF9559358464
aF9648114688
aF9737965568
aF9828982784
aF9921239040
aF10014812160
aF10109771776
aF10206195712
aF10304152576
aF10403718144
aF10504964096
aF10607965184
aF10712791040
aF10819523584
aF10928235520
aF11039002624
aF11151908864
aF11267031040
aF11384453120
aF11504264192
aF11626539008
aF11751370752
asg13
(lp48
I0
aI1
aI2
aI3
aI4
aI5
aI6
aI7
aI8
aI9
aI10
aI11
aI12
aI13
aI14
aI15
aI16
aI17
aI18
aI19
aI20
aI21
aI22
aI23
aI24
aI25
aI26
aI27
aI28
aI29
aI30
aI31
aI32
aI33
aI34
aI35
aI36
aI37
aI38
aI39
aI40
aI41
aI42
aI43
aI44
aI45
aI46
aI47
aI48
aI49
aI50
astp49
a(((dp50
g4
S'3'
sg5
S'2'
sg6
S'[9, 10, 11]'
p51
s(dp52
g9
S''
sS''
t(dp53
S'total population (Cluster 3)'
p54
(lp55
F7031951360
aF7127082496
aF7221020160
aF7313732096
aF7405135872
aF7495153664
aF7583732736
aF7670850048
aF7756512256
aF7840754688
aF7923665920
aF8005358080
aF8085944832
aF8165540864
aF8244260864
aF8322216960
aF8399516672
aF8476264960
aF8552557568
aF8628489216
aF8704146432
aF8779610112
aF8854953984
aF8930247680
aF9005555712
aF9080935424
aF9156442112
aF9232123904
aF9308024832
aF9384185856
aF9460643840
aF9537432576
aF9614581760
aF9692119040
aF9770068992
aF9848453120
aF9927293952
aF10006607872
aF10086412288
aF10166721536
aF10247547904
aF10328905728
aF10410804224
aF10493253632
aF10576264192
aF10659849216
aF10744010752
aF10828750848
aF10914078720
aF10999989248
aF11086488576
asg13
(lp56
I0
aI1
aI2
aI3
aI4
aI5
aI6
aI7
aI8
aI9
aI10
aI11
aI12
aI13
aI14
aI15
aI16
aI17
aI18
aI19
aI20
aI21
aI22
aI23
aI24
aI25
aI26
aI27
aI28
aI29
aI30
aI31
aI32
aI33
aI34
aI35
aI36
aI37
aI38
aI39
aI40
aI41
aI42
aI43
aI44
aI45
aI46
aI47
aI48
aI49
aI50
astp57
a(((dp58
g4
S'3'
sg5
S'3'
sg6
S'[9, 10, 11]'
p59
s(dp60
g9
S''
sS''
t(dp61
S'total population (Cluster 3)'
p62
(lp63
F7031951360
aF7122241024
aF7211978752
aF7300400128
aF7387159040
aF7472084992
aF7555105792
aF7636206592
aF7715402752
aF7792733696
aF7868251136
aF7942073856
aF8014380544
aF8085340160
aF8155108352
aF8223820288
aF8291597312
aF8358552576
aF8424797184
aF8490435072
aF8555566080
aF8620283904
aF8684720128
aF8748978176
aF8813095936
aF8877140992
aF8941210624
aF9005348864
aF9069606912
aF9134045184
aF9198724096
aF9263702016
aF9329039360
aF9394796544
aF9461029888
aF9527799808
aF9595166720
aF9663191040
aF9731939328
aF9801475072
aF9871868928
aF9943189504
aF10015513600
aF10088912896
aF10163465216
aF10239250432
aF10316350464
aF10394847232
aF10474829824
aF10556391424
aF10639625216
asg13
(lp64
I0
aI1
aI2
aI3
aI4
aI5
aI6
aI7
aI8
aI9
aI10
aI11
aI12
aI13
aI14
aI15
aI16
aI17
aI18
aI19
aI20
aI21
aI22
aI23
aI24
aI25
aI26
aI27
aI28
aI29
aI30
aI31
aI32
aI33
aI34
aI35
aI36
aI37
aI38
aI39
aI40
aI41
aI42
aI43
aI44
aI45
aI46
aI47
aI48
aI49
aI50
astp65
a(((dp66
g4
S'3'
sg5
S'5'
sg6
S'[9, 10, 11]'
p67
s(dp68
g9
S''
sS''
t(dp69
S'total population (Cluster 3)'
p70
(lp71
F7031951360
aF7117687296
aF7203217408
aF7288425984
aF7373126144
aF7457145856
aF7540367360
aF7622728704
aF7704212480
aF7784843776
aF7864725504
aF7943984128
aF8022746112
aF8101134848
aF8179273728
aF8257280000
aF8335267840
aF8413346816
aF8491617280
aF8570173952
aF8649105408
aF8728493056
aF8808413184
aF8888935424
aF8970120192
aF9052035072
aF9134741504
aF9218275328
aF9302679552
aF9387995136
aF9474256896
aF9561501696
aF9649764352
aF9739071488
aF9829451776
aF9920932864
aF10013534208
aF10107280384
aF10202190848
aF10298283008
aF10395576320
aF10494085120
aF10593825792
aF10694811648
aF10797065216
aF10900597760
aF11005412352
aF11111519232
aF11218926592
aF11327641600
aF11437676544
asg13
(lp72
I0
aI1
aI2
aI3
aI4
aI5
aI6
aI7
aI8
aI9
aI10
aI11
aI12
aI13
aI14
aI15
aI16
aI17
aI18
aI19
aI20
aI21
aI22
aI23
aI24
aI25
aI26
aI27
aI28
aI29
aI30
aI31
aI32
aI33
aI34
aI35
aI36
aI37
aI38
aI39
aI40
aI41
aI42
aI43
aI44
aI45
aI46
aI47
aI48
aI49
aI50
astp73
a(((dp74
g4
S'3'
sg5
S'7'
sg6
S'[9, 10, 11]'
p75
s(dp76
g9
S''
sS''
t(dp77
S'total population (Cluster 3)'
p78
(lp79
F7031951360
aF7129192448
aF7224786944
aF7318502912
aF7410204160
aF7499826176
aF7587353088
aF7672805376
aF7756239360
aF7837765120
aF7917509632
aF7995607040
aF8072194560
aF8147409920
aF8221390848
aF8294272000
aF8366182400
aF8437251072
aF8507597824
aF8577338368
aF8646584320
aF8715439104
aF8784003072
aF8852369408
aF8920629248
aF8988868608
aF9057167360
aF9125614592
aF9194300416
aF9263282176
aF9332624384
aF9402394624
aF9472662528
aF9543494656
aF9614959616
aF9687126016
aF9760061440
aF9833831424
aF9908529152
aF9984312320
aF10061190144
aF10139192320
aF10218383360
aF10298832896
aF10380618752
aF10463821824
aF10548526080
aF10634814464
aF10722772992
aF10812491776
aF10904062976
asg13
(lp80
I0
aI1
aI2
aI3
aI4
aI5
aI6
aI7
aI8
aI9
aI10
aI11
aI12
aI13
aI14
aI15
aI16
aI17
aI18
aI19
aI20
aI21
aI22
aI23
aI24
aI25
aI26
aI27
aI28
aI29
aI30
aI31
aI32
aI33
aI34
aI35
aI36
aI37
aI38
aI39
aI40
aI41
aI42
aI43
aI44
aI45
aI46
aI47
aI48
aI49
aI50
astp81
aa(lp82
(((dp83
g4
S'4'
sg5
S'4'
sg6
S'[11, 9, 11]'
p84
s(dp85
g9
S''
sS''
tp86
(dp87
S'total population (Cluster 4)'
p88
(lp89
F7031951360
aF7113661440
aF7197064704
aF7280792576
aF7364252672
aF7447178240
aF7529461760
aF7611085312
aF7692079104
aF7772505088
aF7852442624
aF7931983872
aF8011224576
aF8090242560
aF8169099776
aF8247889408
aF8326746112
aF8405797888
aF8485152768
aF8564894720
aF8645104640
aF8725855232
aF8807217152
aF8889247744
aF8971998208
aF9055491072
aF9139781632
aF9224923136
aF9310993408
aF9398012928
aF9486005248
aF9575001088
aF9665032192
aF9756130304
aF9848321024
aF9941630976
aF10036082688
aF10131697664
aF10228496384
aF10326496256
aF10425713664
aF10526164992
aF10627865600
aF10730845184
aF10835103744
aF10940648448
aF11047482368
aF11155613696
aF11265054720
aF11375808512
aF11487883264
asg13
(lp90
I0
aI1
aI2
aI3
aI4
aI5
aI6
aI7
aI8
aI9
aI10
aI11
aI12
aI13
aI14
aI15
aI16
aI17
aI18
aI19
aI20
aI21
aI22
aI23
aI24
aI25
aI26
aI27
aI28
aI29
aI30
aI31
aI32
aI33
aI34
aI35
aI36
aI37
aI38
aI39
aI40
aI41
aI42
aI43
aI44
aI45
aI46
aI47
aI48
aI49
aI50
astp91
aa.